target datalayout = "e-m:e-p270:32:32-p271:32:32-p272:64:64-i64:64-i128:128-f80:128-n8:16:32:64-S128"
target triple = "x86_64-pc-linux-gnu"

%struct.tm = type { i32, i32, i32, i32, i32, i32, i32, i32, i32, i64, ptr }

; Function Attrs: nounwind uwtable
define i64 @PGTYPEStimestamp_from_asc(ptr noundef %0, ptr noundef %1) #0 {
  %3 = alloca i64, align 8
  %4 = alloca ptr, align 8
  %5 = alloca ptr, align 8
  %6 = alloca i64, align 8
  %7 = alloca i64, align 8
  %8 = alloca i32, align 4
  %9 = alloca %struct.tm, align 8
  %10 = alloca ptr, align 8
  %11 = alloca i32, align 4
  %12 = alloca i32, align 4
  %13 = alloca [25 x ptr], align 16
  %14 = alloca [25 x i32], align 16
  %15 = alloca [153 x i8], align 16
  %16 = alloca ptr, align 8
  %17 = alloca ptr, align 8
  %18 = alloca i32, align 4
  store ptr %0, ptr %4, align 8
  store ptr %1, ptr %5, align 8
  call void @llvm.lifetime.start.p0(i64 8, ptr %6) #11
  call void @llvm.lifetime.start.p0(i64 8, ptr %7) #11
  store i64 0, ptr %7, align 8
  call void @llvm.lifetime.start.p0(i64 4, ptr %8) #11
  call void @llvm.lifetime.start.p0(i64 56, ptr %9) #11
  call void @llvm.lifetime.start.p0(i64 8, ptr %10) #11
  store ptr %9, ptr %10, align 8
  call void @llvm.lifetime.start.p0(i64 4, ptr %11) #11
  call void @llvm.lifetime.start.p0(i64 4, ptr %12) #11
  call void @llvm.lifetime.start.p0(i64 200, ptr %13) #11
  call void @llvm.lifetime.start.p0(i64 100, ptr %14) #11
  call void @llvm.lifetime.start.p0(i64 153, ptr %15) #11
  call void @llvm.lifetime.start.p0(i64 8, ptr %16) #11
  call void @llvm.lifetime.start.p0(i64 8, ptr %17) #11
  %19 = load ptr, ptr %5, align 8
  %20 = icmp ne ptr %19, null
  br i1 %20, label %21, label %23

21:                                               ; preds = %2
  %22 = load ptr, ptr %5, align 8
  br label %24

23:                                               ; preds = %2
  br label %24

24:                                               ; preds = %23, %21
  %25 = phi ptr [ %22, %21 ], [ %16, %23 ]
  store ptr %25, ptr %17, align 8
  %26 = load ptr, ptr %4, align 8
  %27 = call i64 @strlen(ptr noundef %26) #12
  %28 = icmp ugt i64 %27, 128
  br i1 %28, label %29, label %32

29:                                               ; preds = %24
  %30 = call ptr @__errno_location() #13
  store i32 320, ptr %30, align 4
  %31 = load i64, ptr %7, align 8
  store i64 %31, ptr %3, align 8
  store i32 1, ptr %18, align 4
  br label %77

32:                                               ; preds = %24
  %33 = load ptr, ptr %4, align 8
  %34 = getelementptr inbounds [153 x i8], ptr %15, i64 0, i64 0
  %35 = getelementptr inbounds [25 x ptr], ptr %13, i64 0, i64 0
  %36 = getelementptr inbounds [25 x i32], ptr %14, i64 0, i64 0
  %37 = load ptr, ptr %17, align 8
  %38 = call i32 @ParseDateTime(ptr noundef %33, ptr noundef %34, ptr noundef %35, ptr noundef %36, ptr noundef %12, ptr noundef %37)
  %39 = icmp ne i32 %38, 0
  br i1 %39, label %47, label %40

40:                                               ; preds = %32
  %41 = getelementptr inbounds [25 x ptr], ptr %13, i64 0, i64 0
  %42 = getelementptr inbounds [25 x i32], ptr %14, i64 0, i64 0
  %43 = load i32, ptr %12, align 4
  %44 = load ptr, ptr %10, align 8
  %45 = call i32 @DecodeDateTime(ptr noundef %41, ptr noundef %42, i32 noundef %43, ptr noundef %11, ptr noundef %44, ptr noundef %8, i1 noundef zeroext false)
  %46 = icmp ne i32 %45, 0
  br i1 %46, label %47, label %50

47:                                               ; preds = %40, %32
  %48 = call ptr @__errno_location() #13
  store i32 320, ptr %48, align 4
  %49 = load i64, ptr %7, align 8
  store i64 %49, ptr %3, align 8
  store i32 1, ptr %18, align 4
  br label %77

50:                                               ; preds = %40
  %51 = load i32, ptr %11, align 4
  switch i32 %51, label %71 [
    i32 2, label %52
    i32 11, label %61
    i32 10, label %63
    i32 9, label %67
  ]

52:                                               ; preds = %50
  %53 = load ptr, ptr %10, align 8
  %54 = load i32, ptr %8, align 4
  %55 = call i32 @tm2timestamp(ptr noundef %53, i32 noundef %54, ptr noundef null, ptr noundef %6)
  %56 = icmp ne i32 %55, 0
  br i1 %56, label %57, label %60

57:                                               ; preds = %52
  %58 = call ptr @__errno_location() #13
  store i32 320, ptr %58, align 4
  %59 = load i64, ptr %7, align 8
  store i64 %59, ptr %3, align 8
  store i32 1, ptr %18, align 4
  br label %77

60:                                               ; preds = %52
  br label %74

61:                                               ; preds = %50
  %62 = call i64 @SetEpochTimestamp()
  store i64 %62, ptr %6, align 8
  br label %74

63:                                               ; preds = %50
  br label %64

64:                                               ; preds = %63
  store i64 9223372036854775807, ptr %6, align 8
  br label %65

65:                                               ; preds = %64
  br label %66

66:                                               ; preds = %65
  br label %74

67:                                               ; preds = %50
  br label %68

68:                                               ; preds = %67
  store i64 -9223372036854775808, ptr %6, align 8
  br label %69

69:                                               ; preds = %68
  br label %70

70:                                               ; preds = %69
  br label %74

71:                                               ; preds = %50
  %72 = call ptr @__errno_location() #13
  store i32 320, ptr %72, align 4
  %73 = load i64, ptr %7, align 8
  store i64 %73, ptr %3, align 8
  store i32 1, ptr %18, align 4
  br label %77

74:                                               ; preds = %70, %66, %61, %60
  %75 = call ptr @__errno_location() #13
  store i32 0, ptr %75, align 4
  %76 = load i64, ptr %6, align 8
  store i64 %76, ptr %3, align 8
  store i32 1, ptr %18, align 4
  br label %77

77:                                               ; preds = %74, %71, %57, %47, %29
  call void @llvm.lifetime.end.p0(i64 8, ptr %17) #11
  call void @llvm.lifetime.end.p0(i64 8, ptr %16) #11
  call void @llvm.lifetime.end.p0(i64 153, ptr %15) #11
  call void @llvm.lifetime.end.p0(i64 100, ptr %14) #11
  call void @llvm.lifetime.end.p0(i64 200, ptr %13) #11
  call void @llvm.lifetime.end.p0(i64 4, ptr %12) #11
  call void @llvm.lifetime.end.p0(i64 4, ptr %11) #11
  call void @llvm.lifetime.end.p0(i64 8, ptr %10) #11
  call void @llvm.lifetime.end.p0(i64 56, ptr %9) #11
  call void @llvm.lifetime.end.p0(i64 4, ptr %8) #11
  call void @llvm.lifetime.end.p0(i64 8, ptr %7) #11
  call void @llvm.lifetime.end.p0(i64 8, ptr %6) #11
  %78 = load i64, ptr %3, align 8
  ret i64 %78
}