; Function Attrs: nounwind uwtable
define i64 @PGTYPEStimestamp_from_asc(ptr noundef %0, ptr noundef %1) local_unnamed_addr #0 {
  %3 = alloca i64, align 8
  %4 = alloca i32, align 4
  %5 = alloca %struct.tm, align 8
  %6 = alloca i32, align 4
  %7 = alloca i32, align 4
  %8 = alloca [25 x ptr], align 16
  %9 = alloca [25 x i32], align 16
  %10 = alloca [153 x i8], align 16
  %11 = alloca ptr, align 8
  call void @llvm.lifetime.start.p0(i64 8, ptr nonnull %3) #10
  call void @llvm.lifetime.start.p0(i64 4, ptr nonnull %4) #10
  call void @llvm.lifetime.start.p0(i64 56, ptr nonnull %5) #10
  call void @llvm.lifetime.start.p0(i64 4, ptr nonnull %6) #10
  call void @llvm.lifetime.start.p0(i64 4, ptr nonnull %7) #10
  call void @llvm.lifetime.start.p0(i64 200, ptr nonnull %8) #10
  call void @llvm.lifetime.start.p0(i64 100, ptr nonnull %9) #10
  call void @llvm.lifetime.start.p0(i64 153, ptr nonnull %10) #10
  call void @llvm.lifetime.start.p0(i64 8, ptr nonnull %11) #10
  %12 = tail call i64 @strlen(ptr noundef nonnull dereferenceable(1) %0) #11
  %13 = icmp ugt i64 %12, 128
  br i1 %13, label %._crit_edge, label %14

14:                                               ; preds = %2
  %.not = icmp eq ptr %1, null
  %15 = select i1 %.not, ptr %11, ptr %1
  %16 = call i32 @ParseDateTime(ptr noundef nonnull %0, ptr noundef nonnull %10, ptr noundef nonnull %8, ptr noundef nonnull %9, ptr noundef nonnull %7, ptr noundef nonnull %15) #10
  %.not11 = icmp eq i32 %16, 0
  br i1 %.not11, label %17, label %._crit_edge

17:                                               ; preds = %14
  %18 = load i32, ptr %7, align 4
  %19 = call i32 @DecodeDateTime(ptr noundef nonnull %8, ptr noundef nonnull %9, i32 noundef %18, ptr noundef nonnull %6, ptr noundef nonnull %5, ptr noundef nonnull %4, i1 noundef zeroext false) #10
  %.not12 = icmp eq i32 %19, 0
  br i1 %.not12, label %20, label %._crit_edge

20:                                               ; preds = %17
  %21 = load i32, ptr %6, align 4
  switch i32 %21, label %._crit_edge [
    i32 2, label %22
    i32 11, label %25
    i32 10, label %28
    i32 9, label %27
  ]

22:                                               ; preds = %20
  %23 = load i32, ptr %4, align 4
  %24 = call i32 @tm2timestamp(ptr noundef nonnull %5, i32 noundef %23, ptr noundef null, ptr noundef nonnull %3)
  %.not13 = icmp eq i32 %24, 0
  %.pre = load i64, ptr %3, align 8
  %spec.select = select i1 %.not13, i32 0, i32 320
  %spec.select15 = select i1 %.not13, i64 %.pre, i64 0
  br label %._crit_edge

25:                                               ; preds = %20
  %26 = call fastcc i64 @SetEpochTimestamp()
  br label %._crit_edge

27:                                               ; preds = %20
  br label %._crit_edge

28:                                               ; preds = %20
  br label %._crit_edge

._crit_edge:                                      ; preds = %22, %25, %27, %20, %14, %17, %2, %28
  %.sink = phi i32 [ 320, %2 ], [ 320, %17 ], [ 320, %14 ], [ 320, %20 ], [ 0, %27 ], [ 0, %25 ], [ 0, %28 ], [ %spec.select, %22 ]
  %.0 = phi i64 [ 0, %2 ], [ 0, %17 ], [ 0, %14 ], [ 0, %20 ], [ -9223372036854775808, %27 ], [ %26, %25 ], [ 9223372036854775807, %28 ], [ %spec.select15, %22 ]
  %29 = tail call ptr @__errno_location() #12
  store i32 %.sink, ptr %29, align 4
  call void @llvm.lifetime.end.p0(i64 8, ptr nonnull %11) #10
  call void @llvm.lifetime.end.p0(i64 153, ptr nonnull %10) #10
  call void @llvm.lifetime.end.p0(i64 100, ptr nonnull %9) #10
  call void @llvm.lifetime.end.p0(i64 200, ptr nonnull %8) #10
  call void @llvm.lifetime.end.p0(i64 4, ptr nonnull %7) #10
  call void @llvm.lifetime.end.p0(i64 4, ptr nonnull %6) #10
  call void @llvm.lifetime.end.p0(i64 56, ptr nonnull %5) #10
  call void @llvm.lifetime.end.p0(i64 4, ptr nonnull %4) #10
  call void @llvm.lifetime.end.p0(i64 8, ptr nonnull %3) #10
  ret i64 %.0
}